; Function Attrs: mustprogress uwtable
define void @_ZN4toku12lock_request7destroyEv(ptr noundef nonnull align 8 dereferenceable(224) initializes((124, 128)) %0) local_unnamed_addr #0 align 2 personality ptr @__gxx_personality_v0 {
  %2 = getelementptr inbounds nuw i8, ptr %0, i64 124
  store i32 4, ptr %2, align 4, !tbaa !40
  %3 = getelementptr inbounds nuw i8, ptr %0, i64 40
  tail call void @_Z16toku_destroy_dbtP10__toku_dbt(ptr noundef nonnull %3)
  %4 = getelementptr inbounds nuw i8, ptr %0, i64 72
  tail call void @_Z16toku_destroy_dbtP10__toku_dbt(ptr noundef nonnull %4)
  %5 = getelementptr inbounds nuw i8, ptr %0, i64 128
  store ptr null, ptr %5, align 8, !tbaa !35
  %6 = getelementptr inbounds nuw i8, ptr %0, i64 136
  %7 = load ptr, ptr %6, align 8, !tbaa !29
  store ptr null, ptr %6, align 8, !tbaa !29
  %.not.i.i.i.i = icmp eq ptr %7, null
  br i1 %.not.i.i.i.i, label %_Z26toku_external_cond_destroyPSt10shared_ptrIN7rocksdb20TransactionDBCondVarEE.exit, label %8

8:                                                ; preds = %1
  %9 = getelementptr inbounds nuw i8, ptr %7, i64 8
  %10 = load atomic i64, ptr %9 acquire, align 8
  %11 = icmp eq i64 %10, 4294967297
  %12 = trunc i64 %10 to i32
  br i1 %11, label %13, label %21

13:                                               ; preds = %8
  store i32 0, ptr %9, align 8, !tbaa !36
  %14 = getelementptr inbounds nuw i8, ptr %7, i64 12
  store i32 0, ptr %14, align 4, !tbaa !38
  %15 = load ptr, ptr %7, align 8, !tbaa !32
  %16 = getelementptr inbounds nuw i8, ptr %15, i64 16
  %17 = load ptr, ptr %16, align 8
  tail call void %17(ptr noundef nonnull align 8 dereferenceable(16) %7) #22
  %18 = load ptr, ptr %7, align 8, !tbaa !32
  %19 = getelementptr inbounds nuw i8, ptr %18, i64 24
  %20 = load ptr, ptr %19, align 8
  tail call void %20(ptr noundef nonnull align 8 dereferenceable(16) %7) #22
  br label %_Z26toku_external_cond_destroyPSt10shared_ptrIN7rocksdb20TransactionDBCondVarEE.exit

21:                                               ; preds = %8
  %22 = load i8, ptr @__libc_single_threaded, align 1, !tbaa !30
  %.not.i.i.i.i.i = icmp eq i8 %22, 0
  br i1 %.not.i.i.i.i.i, label %25, label %23

23:                                               ; preds = %21
  %24 = add nsw i32 %12, -1
  store i32 %24, ptr %9, align 4, !tbaa !31
  br label %_ZN9__gnu_cxx27__exchange_and_add_dispatchEPii.exit.i.i.i.i.i

25:                                               ; preds = %21
  %26 = atomicrmw volatile add ptr %9, i32 -1 acq_rel, align 4
  br label %_ZN9__gnu_cxx27__exchange_and_add_dispatchEPii.exit.i.i.i.i.i

_ZN9__gnu_cxx27__exchange_and_add_dispatchEPii.exit.i.i.i.i.i: ; preds = %25, %23
  %.0.i.i.i.i.i.i = phi i32 [ %12, %23 ], [ %26, %25 ]
  %27 = icmp eq i32 %.0.i.i.i.i.i.i, 1
  br i1 %27, label %28, label %_Z26toku_external_cond_destroyPSt10shared_ptrIN7rocksdb20TransactionDBCondVarEE.exit, !prof !39

28:                                               ; preds = %_ZN9__gnu_cxx27__exchange_and_add_dispatchEPii.exit.i.i.i.i.i
  tail call void @_ZNSt16_Sp_counted_baseILN9__gnu_cxx12_Lock_policyE2EE24_M_release_last_use_coldEv(ptr noundef nonnull align 8 dereferenceable(16) %7) #22
  br label %_Z26toku_external_cond_destroyPSt10shared_ptrIN7rocksdb20TransactionDBCondVarEE.exit

_Z26toku_external_cond_destroyPSt10shared_ptrIN7rocksdb20TransactionDBCondVarEE.exit: ; preds = %1, %13, %_ZN9__gnu_cxx27__exchange_and_add_dispatchEPii.exit.i.i.i.i.i, %28
  ret void
}